
src/main.elf:     file format elf32-littlearm


Disassembly of section .text:

00000000 <__text_start>:
   0:	10000410 	.word	0x10000410
   4:	00000229 	.word	0x00000229
	...

00000020 <timer_init>:
  20:	4b07      	ldr	r3, [pc, #28]	; (40 <timer_init+0x20>)
  22:	2280      	movs	r2, #128	; 0x80
  24:	6fd9      	ldr	r1, [r3, #124]	; 0x7c
  26:	0092      	lsls	r2, r2, #2
  28:	430a      	orrs	r2, r1
  2a:	67da      	str	r2, [r3, #124]	; 0x7c
  2c:	4b05      	ldr	r3, [pc, #20]	; (44 <timer_init+0x24>)
  2e:	2200      	movs	r2, #0
  30:	210b      	movs	r1, #11
  32:	671a      	str	r2, [r3, #112]	; 0x70
  34:	60d9      	str	r1, [r3, #12]
  36:	609a      	str	r2, [r3, #8]
  38:	2201      	movs	r2, #1
  3a:	605a      	str	r2, [r3, #4]
  3c:	4770      	bx	lr
  3e:	46c0      	nop			; (mov r8, r8)
  40:	40048004 	.word	0x40048004
  44:	40014000 	.word	0x40014000

00000048 <now>:
  48:	4b01      	ldr	r3, [pc, #4]	; (50 <now+0x8>)
  4a:	6898      	ldr	r0, [r3, #8]
  4c:	4770      	bx	lr
  4e:	46c0      	nop			; (mov r8, r8)
  50:	40014000 	.word	0x40014000

00000054 <await>:
  54:	4b02      	ldr	r3, [pc, #8]	; (60 <await+0xc>)
  56:	689b      	ldr	r3, [r3, #8]
  58:	4298      	cmp	r0, r3
  5a:	d8fb      	bhi.n	54 <await>
  5c:	4770      	bx	lr
  5e:	46c0      	nop			; (mov r8, r8)
  60:	40014000 	.word	0x40014000

00000064 <delay>:
  64:	b507      	push	{r0, r1, r2, lr}
  66:	4b04      	ldr	r3, [pc, #16]	; (78 <delay+0x14>)
  68:	9001      	str	r0, [sp, #4]
  6a:	6898      	ldr	r0, [r3, #8]
  6c:	9b01      	ldr	r3, [sp, #4]
  6e:	18c0      	adds	r0, r0, r3
  70:	f7ff fff0 	bl	54 <await>
  74:	bd07      	pop	{r0, r1, r2, pc}
  76:	46c0      	nop			; (mov r8, r8)
  78:	40014000 	.word	0x40014000

0000007c <baudrate_set>:
  7c:	b508      	push	{r3, lr}
  7e:	4b08      	ldr	r3, [pc, #32]	; (a0 <baudrate_set+0x24>)
  80:	2101      	movs	r1, #1
  82:	1c1a      	adds	r2, r3, #0
  84:	3298      	adds	r2, #152	; 0x98
  86:	6011      	str	r1, [r2, #0]
  88:	6f99      	ldr	r1, [r3, #120]	; 0x78
  8a:	0109      	lsls	r1, r1, #4
  8c:	4341      	muls	r1, r0
  8e:	4805      	ldr	r0, [pc, #20]	; (a4 <baudrate_set+0x28>)
  90:	f000 f8f4 	bl	27c <__aeabi_uidiv>
  94:	4b04      	ldr	r3, [pc, #16]	; (a8 <baudrate_set+0x2c>)
  96:	1202      	asrs	r2, r0, #8
  98:	b2c0      	uxtb	r0, r0
  9a:	605a      	str	r2, [r3, #4]
  9c:	6018      	str	r0, [r3, #0]
  9e:	bd08      	pop	{r3, pc}
  a0:	40048000 	.word	0x40048000
  a4:	00b71b00 	.word	0x00b71b00
  a8:	40008000 	.word	0x40008000

000000ac <uart_init>:
  ac:	b538      	push	{r3, r4, r5, lr}
  ae:	4b1a      	ldr	r3, [pc, #104]	; (118 <uart_init+0x6c>)
  b0:	2280      	movs	r2, #128	; 0x80
  b2:	6fd9      	ldr	r1, [r3, #124]	; 0x7c
  b4:	0252      	lsls	r2, r2, #9
  b6:	430a      	orrs	r2, r1
  b8:	67da      	str	r2, [r3, #124]	; 0x7c
  ba:	6fda      	ldr	r2, [r3, #124]	; 0x7c
  bc:	2180      	movs	r1, #128	; 0x80
  be:	0149      	lsls	r1, r1, #5
  c0:	430a      	orrs	r2, r1
  c2:	67da      	str	r2, [r3, #124]	; 0x7c
  c4:	4a15      	ldr	r2, [pc, #84]	; (11c <uart_init+0x70>)
  c6:	2507      	movs	r5, #7
  c8:	6810      	ldr	r0, [r2, #0]
  ca:	43a8      	bics	r0, r5
  cc:	6010      	str	r0, [r2, #0]
  ce:	6814      	ldr	r4, [r2, #0]
  d0:	2001      	movs	r0, #1
  d2:	4304      	orrs	r4, r0
  d4:	6014      	str	r4, [r2, #0]
  d6:	4a12      	ldr	r2, [pc, #72]	; (120 <uart_init+0x74>)
  d8:	6814      	ldr	r4, [r2, #0]
  da:	43ac      	bics	r4, r5
  dc:	6014      	str	r4, [r2, #0]
  de:	6814      	ldr	r4, [r2, #0]
  e0:	4320      	orrs	r0, r4
  e2:	6010      	str	r0, [r2, #0]
  e4:	6fda      	ldr	r2, [r3, #124]	; 0x7c
  e6:	4c0f      	ldr	r4, [pc, #60]	; (124 <uart_init+0x78>)
  e8:	4311      	orrs	r1, r2
  ea:	67d9      	str	r1, [r3, #124]	; 0x7c
  ec:	2096      	movs	r0, #150	; 0x96
  ee:	2383      	movs	r3, #131	; 0x83
  f0:	60e3      	str	r3, [r4, #12]
  f2:	0200      	lsls	r0, r0, #8
  f4:	f7ff ffc2 	bl	7c <baudrate_set>
  f8:	2303      	movs	r3, #3
  fa:	60e3      	str	r3, [r4, #12]
  fc:	60a5      	str	r5, [r4, #8]
  fe:	6963      	ldr	r3, [r4, #20]
 100:	6962      	ldr	r2, [r4, #20]
 102:	2360      	movs	r3, #96	; 0x60
 104:	4013      	ands	r3, r2
 106:	2b60      	cmp	r3, #96	; 0x60
 108:	d1fa      	bne.n	100 <uart_init+0x54>
 10a:	6963      	ldr	r3, [r4, #20]
 10c:	07da      	lsls	r2, r3, #31
 10e:	d502      	bpl.n	116 <uart_init+0x6a>
 110:	4b04      	ldr	r3, [pc, #16]	; (124 <uart_init+0x78>)
 112:	681b      	ldr	r3, [r3, #0]
 114:	e7f9      	b.n	10a <uart_init+0x5e>
 116:	bd38      	pop	{r3, r4, r5, pc}
 118:	40048004 	.word	0x40048004
 11c:	400440a4 	.word	0x400440a4
 120:	400440a8 	.word	0x400440a8
 124:	40008000 	.word	0x40008000

00000128 <uart_receive_blocking>:
 128:	4b02      	ldr	r3, [pc, #8]	; (134 <uart_receive_blocking+0xc>)
 12a:	695a      	ldr	r2, [r3, #20]
 12c:	07d1      	lsls	r1, r2, #31
 12e:	d5fb      	bpl.n	128 <uart_receive_blocking>
 130:	6818      	ldr	r0, [r3, #0]
 132:	4770      	bx	lr
 134:	40008000 	.word	0x40008000

00000138 <uart_rend>:
 138:	b510      	push	{r4, lr}
 13a:	4b0c      	ldr	r3, [pc, #48]	; (16c <uart_rend+0x34>)
 13c:	b2c1      	uxtb	r1, r0
 13e:	681a      	ldr	r2, [r3, #0]
 140:	430a      	orrs	r2, r1
 142:	601a      	str	r2, [r3, #0]
 144:	2801      	cmp	r0, #1
 146:	d101      	bne.n	14c <uart_rend+0x14>
 148:	2001      	movs	r0, #1
 14a:	e00d      	b.n	168 <uart_rend+0x30>
 14c:	f7ff ff7c 	bl	48 <now>
 150:	4b07      	ldr	r3, [pc, #28]	; (170 <uart_rend+0x38>)
 152:	18c4      	adds	r4, r0, r3
 154:	f7ff ff78 	bl	48 <now>
 158:	4284      	cmp	r4, r0
 15a:	d904      	bls.n	166 <uart_rend+0x2e>
 15c:	f000 f80a 	bl	174 <uart_receive_non_blocking>
 160:	2801      	cmp	r0, #1
 162:	d1f7      	bne.n	154 <uart_rend+0x1c>
 164:	e7f0      	b.n	148 <uart_rend+0x10>
 166:	2000      	movs	r0, #0
 168:	bd10      	pop	{r4, pc}
 16a:	46c0      	nop			; (mov r8, r8)
 16c:	40008000 	.word	0x40008000
 170:	000186a0 	.word	0x000186a0

00000174 <uart_receive_non_blocking>:
 174:	4b07      	ldr	r3, [pc, #28]	; (194 <uart_receive_non_blocking+0x20>)
 176:	2001      	movs	r0, #1
 178:	695a      	ldr	r2, [r3, #20]
 17a:	b510      	push	{r4, lr}
 17c:	4202      	tst	r2, r0
 17e:	d006      	beq.n	18e <uart_receive_non_blocking+0x1a>
 180:	681c      	ldr	r4, [r3, #0]
 182:	4284      	cmp	r4, r0
 184:	d005      	beq.n	192 <uart_receive_non_blocking+0x1e>
 186:	f7ff ffd7 	bl	138 <uart_rend>
 18a:	1c20      	adds	r0, r4, #0
 18c:	e001      	b.n	192 <uart_receive_non_blocking+0x1e>
 18e:	2001      	movs	r0, #1
 190:	4240      	negs	r0, r0
 192:	bd10      	pop	{r4, pc}
 194:	40008000 	.word	0x40008000

00000198 <main>:
 198:	b538      	push	{r3, r4, r5, lr}
 19a:	f7ff ff87 	bl	ac <uart_init>
 19e:	f7ff ff3f 	bl	20 <timer_init>
 1a2:	2002      	movs	r0, #2
 1a4:	f7ff ffc8 	bl	138 <uart_rend>
 1a8:	2800      	cmp	r0, #0
 1aa:	d104      	bne.n	1b6 <main+0x1e>
 1ac:	20fa      	movs	r0, #250	; 0xfa
 1ae:	0080      	lsls	r0, r0, #2
 1b0:	f7ff ff58 	bl	64 <delay>
 1b4:	e7f5      	b.n	1a2 <main+0xa>
 1b6:	f7ff ffb7 	bl	128 <uart_receive_blocking>
 1ba:	2803      	cmp	r0, #3
 1bc:	d1f1      	bne.n	1a2 <main+0xa>
 1be:	4d17      	ldr	r5, [pc, #92]	; (21c <main+0x84>)
 1c0:	682b      	ldr	r3, [r5, #0]
 1c2:	0858      	lsrs	r0, r3, #1
 1c4:	b2c4      	uxtb	r4, r0
 1c6:	b2c0      	uxtb	r0, r0
 1c8:	f7ff ffb6 	bl	138 <uart_rend>
 1cc:	682b      	ldr	r3, [r5, #0]
 1ce:	07da      	lsls	r2, r3, #31
 1d0:	d501      	bpl.n	1d6 <main+0x3e>
 1d2:	3401      	adds	r4, #1
 1d4:	b2e4      	uxtb	r4, r4
 1d6:	1c20      	adds	r0, r4, #0
 1d8:	f7ff ffae 	bl	138 <uart_rend>
 1dc:	4d10      	ldr	r5, [pc, #64]	; (220 <main+0x88>)
 1de:	682a      	ldr	r2, [r5, #0]
 1e0:	0850      	lsrs	r0, r2, #1
 1e2:	b2c4      	uxtb	r4, r0
 1e4:	b2c0      	uxtb	r0, r0
 1e6:	f7ff ffa7 	bl	138 <uart_rend>
 1ea:	682b      	ldr	r3, [r5, #0]
 1ec:	07da      	lsls	r2, r3, #31
 1ee:	d501      	bpl.n	1f4 <main+0x5c>
 1f0:	3401      	adds	r4, #1
 1f2:	b2e4      	uxtb	r4, r4
 1f4:	1c20      	adds	r0, r4, #0
 1f6:	f7ff ff9f 	bl	138 <uart_rend>
 1fa:	4d0a      	ldr	r5, [pc, #40]	; (224 <main+0x8c>)
 1fc:	682b      	ldr	r3, [r5, #0]
 1fe:	0858      	lsrs	r0, r3, #1
 200:	b2c4      	uxtb	r4, r0
 202:	b2c0      	uxtb	r0, r0
 204:	f7ff ff98 	bl	138 <uart_rend>
 208:	682b      	ldr	r3, [r5, #0]
 20a:	07da      	lsls	r2, r3, #31
 20c:	d501      	bpl.n	212 <main+0x7a>
 20e:	3401      	adds	r4, #1
 210:	b2e4      	uxtb	r4, r4
 212:	1c20      	adds	r0, r4, #0
 214:	f7ff ff90 	bl	138 <uart_rend>
 218:	e7d1      	b.n	1be <main+0x26>
 21a:	46c0      	nop			; (mov r8, r8)
 21c:	10000000 	.word	0x10000000
 220:	10000004 	.word	0x10000004
 224:	10000008 	.word	0x10000008

00000228 <__startup>:
 228:	b510      	push	{r4, lr}
 22a:	4b0f      	ldr	r3, [pc, #60]	; (268 <__startup+0x40>)
 22c:	4a0f      	ldr	r2, [pc, #60]	; (26c <__startup+0x44>)
 22e:	1d19      	adds	r1, r3, #4
 230:	3b04      	subs	r3, #4
 232:	4293      	cmp	r3, r2
 234:	d003      	beq.n	23e <__startup+0x16>
 236:	2200      	movs	r2, #0
 238:	601a      	str	r2, [r3, #0]
 23a:	1c0b      	adds	r3, r1, #0
 23c:	e7f6      	b.n	22c <__startup+0x4>
 23e:	4a0c      	ldr	r2, [pc, #48]	; (270 <__startup+0x48>)
 240:	490c      	ldr	r1, [pc, #48]	; (274 <__startup+0x4c>)
 242:	2300      	movs	r3, #0
 244:	1a89      	subs	r1, r1, r2
 246:	0889      	lsrs	r1, r1, #2
 248:	3101      	adds	r1, #1
 24a:	0089      	lsls	r1, r1, #2
 24c:	3304      	adds	r3, #4
 24e:	428b      	cmp	r3, r1
 250:	d007      	beq.n	262 <__startup+0x3a>
 252:	4c09      	ldr	r4, [pc, #36]	; (278 <__startup+0x50>)
 254:	18d0      	adds	r0, r2, r3
 256:	191c      	adds	r4, r3, r4
 258:	3c04      	subs	r4, #4
 25a:	6824      	ldr	r4, [r4, #0]
 25c:	3804      	subs	r0, #4
 25e:	6004      	str	r4, [r0, #0]
 260:	e7f4      	b.n	24c <__startup+0x24>
 262:	f7ff ff99 	bl	198 <main>
 266:	e7fe      	b.n	266 <__startup+0x3e>
 268:	10000010 	.word	0x10000010
 26c:	1000000c 	.word	0x1000000c
 270:	10000000 	.word	0x10000000
 274:	1000000c 	.word	0x1000000c
 278:	0000031c 	.word	0x0000031c

0000027c <__aeabi_uidiv>:
 27c:	2900      	cmp	r1, #0
 27e:	d034      	beq.n	2ea <.udivsi3_skip_div0_test+0x6a>

00000280 <.udivsi3_skip_div0_test>:
 280:	2301      	movs	r3, #1
 282:	2200      	movs	r2, #0
 284:	b410      	push	{r4}
 286:	4288      	cmp	r0, r1
 288:	d32c      	bcc.n	2e4 <.udivsi3_skip_div0_test+0x64>
 28a:	2401      	movs	r4, #1
 28c:	0724      	lsls	r4, r4, #28
 28e:	42a1      	cmp	r1, r4
 290:	d204      	bcs.n	29c <.udivsi3_skip_div0_test+0x1c>
 292:	4281      	cmp	r1, r0
 294:	d202      	bcs.n	29c <.udivsi3_skip_div0_test+0x1c>
 296:	0109      	lsls	r1, r1, #4
 298:	011b      	lsls	r3, r3, #4
 29a:	e7f8      	b.n	28e <.udivsi3_skip_div0_test+0xe>
 29c:	00e4      	lsls	r4, r4, #3
 29e:	42a1      	cmp	r1, r4
 2a0:	d204      	bcs.n	2ac <.udivsi3_skip_div0_test+0x2c>
 2a2:	4281      	cmp	r1, r0
 2a4:	d202      	bcs.n	2ac <.udivsi3_skip_div0_test+0x2c>
 2a6:	0049      	lsls	r1, r1, #1
 2a8:	005b      	lsls	r3, r3, #1
 2aa:	e7f8      	b.n	29e <.udivsi3_skip_div0_test+0x1e>
 2ac:	4288      	cmp	r0, r1
 2ae:	d301      	bcc.n	2b4 <.udivsi3_skip_div0_test+0x34>
 2b0:	1a40      	subs	r0, r0, r1
 2b2:	431a      	orrs	r2, r3
 2b4:	084c      	lsrs	r4, r1, #1
 2b6:	42a0      	cmp	r0, r4
 2b8:	d302      	bcc.n	2c0 <.udivsi3_skip_div0_test+0x40>
 2ba:	1b00      	subs	r0, r0, r4
 2bc:	085c      	lsrs	r4, r3, #1
 2be:	4322      	orrs	r2, r4
 2c0:	088c      	lsrs	r4, r1, #2
 2c2:	42a0      	cmp	r0, r4
 2c4:	d302      	bcc.n	2cc <.udivsi3_skip_div0_test+0x4c>
 2c6:	1b00      	subs	r0, r0, r4
 2c8:	089c      	lsrs	r4, r3, #2
 2ca:	4322      	orrs	r2, r4
 2cc:	08cc      	lsrs	r4, r1, #3
 2ce:	42a0      	cmp	r0, r4
 2d0:	d302      	bcc.n	2d8 <.udivsi3_skip_div0_test+0x58>
 2d2:	1b00      	subs	r0, r0, r4
 2d4:	08dc      	lsrs	r4, r3, #3
 2d6:	4322      	orrs	r2, r4
 2d8:	2800      	cmp	r0, #0
 2da:	d003      	beq.n	2e4 <.udivsi3_skip_div0_test+0x64>
 2dc:	091b      	lsrs	r3, r3, #4
 2de:	d001      	beq.n	2e4 <.udivsi3_skip_div0_test+0x64>
 2e0:	0909      	lsrs	r1, r1, #4
 2e2:	e7e3      	b.n	2ac <.udivsi3_skip_div0_test+0x2c>
 2e4:	1c10      	adds	r0, r2, #0
 2e6:	bc10      	pop	{r4}
 2e8:	4770      	bx	lr
 2ea:	2800      	cmp	r0, #0
 2ec:	d001      	beq.n	2f2 <.udivsi3_skip_div0_test+0x72>
 2ee:	2000      	movs	r0, #0
 2f0:	43c0      	mvns	r0, r0
 2f2:	b407      	push	{r0, r1, r2}
 2f4:	4802      	ldr	r0, [pc, #8]	; (300 <.udivsi3_skip_div0_test+0x80>)
 2f6:	a102      	add	r1, pc, #8	; (adr r1, 300 <.udivsi3_skip_div0_test+0x80>)
 2f8:	1840      	adds	r0, r0, r1
 2fa:	9002      	str	r0, [sp, #8]
 2fc:	bd03      	pop	{r0, r1, pc}
 2fe:	46c0      	nop			; (mov r8, r8)
 300:	00000019 	.word	0x00000019

00000304 <__aeabi_uidivmod>:
 304:	2900      	cmp	r1, #0
 306:	d0f0      	beq.n	2ea <.udivsi3_skip_div0_test+0x6a>
 308:	b503      	push	{r0, r1, lr}
 30a:	f7ff ffb9 	bl	280 <.udivsi3_skip_div0_test>
 30e:	bc0e      	pop	{r1, r2, r3}
 310:	4342      	muls	r2, r0
 312:	1a89      	subs	r1, r1, r2
 314:	4718      	bx	r3
 316:	46c0      	nop			; (mov r8, r8)

00000318 <__aeabi_idiv0>:
 318:	4770      	bx	lr
 31a:	46c0      	nop			; (mov r8, r8)
