
src/main.elf:     file format elf32-littlearm


Disassembly of section .text:

00000000 <__text_start>:
   0:	10000410 	.word	0x10000410
   4:	00000301 	.word	0x00000301
	...

00000020 <timer_init>:
  20:	4b07      	ldr	r3, [pc, #28]	; (40 <timer_init+0x20>)
  22:	2280      	movs	r2, #128	; 0x80
  24:	6fd9      	ldr	r1, [r3, #124]	; 0x7c
  26:	0092      	lsls	r2, r2, #2
  28:	430a      	orrs	r2, r1
  2a:	67da      	str	r2, [r3, #124]	; 0x7c
  2c:	4b05      	ldr	r3, [pc, #20]	; (44 <timer_init+0x24>)
  2e:	2200      	movs	r2, #0
  30:	210b      	movs	r1, #11
  32:	671a      	str	r2, [r3, #112]	; 0x70
  34:	60d9      	str	r1, [r3, #12]
  36:	609a      	str	r2, [r3, #8]
  38:	2201      	movs	r2, #1
  3a:	605a      	str	r2, [r3, #4]
  3c:	4770      	bx	lr
  3e:	46c0      	nop			; (mov r8, r8)
  40:	40048004 	.word	0x40048004
  44:	40014000 	.word	0x40014000

00000048 <now>:
  48:	4b01      	ldr	r3, [pc, #4]	; (50 <now+0x8>)
  4a:	6898      	ldr	r0, [r3, #8]
  4c:	4770      	bx	lr
  4e:	46c0      	nop			; (mov r8, r8)
  50:	40014000 	.word	0x40014000

00000054 <await>:
  54:	4b02      	ldr	r3, [pc, #8]	; (60 <await+0xc>)
  56:	689b      	ldr	r3, [r3, #8]
  58:	4298      	cmp	r0, r3
  5a:	d8fb      	bhi.n	54 <await>
  5c:	4770      	bx	lr
  5e:	46c0      	nop			; (mov r8, r8)
  60:	40014000 	.word	0x40014000

00000064 <delay>:
  64:	b507      	push	{r0, r1, r2, lr}
  66:	4b04      	ldr	r3, [pc, #16]	; (78 <delay+0x14>)
  68:	9001      	str	r0, [sp, #4]
  6a:	6898      	ldr	r0, [r3, #8]
  6c:	9b01      	ldr	r3, [sp, #4]
  6e:	18c0      	adds	r0, r0, r3
  70:	f7ff fff0 	bl	54 <await>
  74:	bd07      	pop	{r0, r1, r2, pc}
  76:	46c0      	nop			; (mov r8, r8)
  78:	40014000 	.word	0x40014000

0000007c <MCP23017_writereg>:
  7c:	b538      	push	{r3, r4, r5, lr}
  7e:	1c05      	adds	r5, r0, #0
  80:	1c0c      	adds	r4, r1, #0
  82:	f000 f85f 	bl	144 <i2c_start>
  86:	204e      	movs	r0, #78	; 0x4e
  88:	f000 f8b1 	bl	1ee <i2c_put_byte>
  8c:	f000 f8a8 	bl	1e0 <i2c_ack_get>
  90:	2800      	cmp	r0, #0
  92:	d101      	bne.n	98 <MCP23017_writereg+0x1c>
  94:	2000      	movs	r0, #0
  96:	e010      	b.n	ba <MCP23017_writereg+0x3e>
  98:	1c28      	adds	r0, r5, #0
  9a:	f000 f8a8 	bl	1ee <i2c_put_byte>
  9e:	f000 f89f 	bl	1e0 <i2c_ack_get>
  a2:	2800      	cmp	r0, #0
  a4:	d0f6      	beq.n	94 <MCP23017_writereg+0x18>
  a6:	1c20      	adds	r0, r4, #0
  a8:	f000 f8a1 	bl	1ee <i2c_put_byte>
  ac:	f000 f898 	bl	1e0 <i2c_ack_get>
  b0:	2800      	cmp	r0, #0
  b2:	d002      	beq.n	ba <MCP23017_writereg+0x3e>
  b4:	f000 f852 	bl	15c <i2c_stop>
  b8:	2001      	movs	r0, #1
  ba:	bd38      	pop	{r3, r4, r5, pc}

000000bc <i2c_scl_set.part.0>:
  bc:	4b03      	ldr	r3, [pc, #12]	; (cc <i2c_scl_set.part.0+0x10>)
  be:	22a0      	movs	r2, #160	; 0xa0
  c0:	05d2      	lsls	r2, r2, #23
  c2:	58d1      	ldr	r1, [r2, r3]
  c4:	2010      	movs	r0, #16
  c6:	4301      	orrs	r1, r0
  c8:	50d1      	str	r1, [r2, r3]
  ca:	4770      	bx	lr
  cc:	00003ffc 	.word	0x00003ffc

000000d0 <i2c_pause>:
  d0:	b508      	push	{r3, lr}
  d2:	f7ff ffb9 	bl	48 <now>
  d6:	3005      	adds	r0, #5
  d8:	f7ff ffbc 	bl	54 <await>
  dc:	bd08      	pop	{r3, pc}
	...

000000e0 <i2c_scl_set>:
  e0:	b508      	push	{r3, lr}
  e2:	2800      	cmp	r0, #0
  e4:	d002      	beq.n	ec <i2c_scl_set+0xc>
  e6:	f7ff ffe9 	bl	bc <i2c_scl_set.part.0>
  ea:	e00b      	b.n	104 <i2c_scl_set+0x24>
  ec:	23a0      	movs	r3, #160	; 0xa0
  ee:	2280      	movs	r2, #128	; 0x80
  f0:	05db      	lsls	r3, r3, #23
  f2:	0212      	lsls	r2, r2, #8
  f4:	5898      	ldr	r0, [r3, r2]
  f6:	2110      	movs	r1, #16
  f8:	4308      	orrs	r0, r1
  fa:	5098      	str	r0, [r3, r2]
  fc:	4a02      	ldr	r2, [pc, #8]	; (108 <i2c_scl_set+0x28>)
  fe:	5898      	ldr	r0, [r3, r2]
 100:	4388      	bics	r0, r1
 102:	5098      	str	r0, [r3, r2]
 104:	bd08      	pop	{r3, pc}
 106:	46c0      	nop			; (mov r8, r8)
 108:	00003ffc 	.word	0x00003ffc

0000010c <i2c_sda_set>:
 10c:	23a0      	movs	r3, #160	; 0xa0
 10e:	2280      	movs	r2, #128	; 0x80
 110:	05db      	lsls	r3, r3, #23
 112:	0212      	lsls	r2, r2, #8
 114:	2120      	movs	r1, #32
 116:	2800      	cmp	r0, #0
 118:	d103      	bne.n	122 <i2c_sda_set+0x16>
 11a:	5898      	ldr	r0, [r3, r2]
 11c:	4308      	orrs	r0, r1
 11e:	5098      	str	r0, [r3, r2]
 120:	4a02      	ldr	r2, [pc, #8]	; (12c <i2c_sda_set+0x20>)
 122:	5898      	ldr	r0, [r3, r2]
 124:	4388      	bics	r0, r1
 126:	5098      	str	r0, [r3, r2]
 128:	4770      	bx	lr
 12a:	46c0      	nop			; (mov r8, r8)
 12c:	00003ffc 	.word	0x00003ffc

00000130 <i2c_sda_get>:
 130:	4b03      	ldr	r3, [pc, #12]	; (140 <i2c_sda_get+0x10>)
 132:	22a0      	movs	r2, #160	; 0xa0
 134:	05d2      	lsls	r2, r2, #23
 136:	58d0      	ldr	r0, [r2, r3]
 138:	0680      	lsls	r0, r0, #26
 13a:	0fc0      	lsrs	r0, r0, #31
 13c:	4770      	bx	lr
 13e:	46c0      	nop			; (mov r8, r8)
 140:	00003ffc 	.word	0x00003ffc

00000144 <i2c_start>:
 144:	b508      	push	{r3, lr}
 146:	2000      	movs	r0, #0
 148:	f7ff ffe0 	bl	10c <i2c_sda_set>
 14c:	f7ff ffc0 	bl	d0 <i2c_pause>
 150:	2000      	movs	r0, #0
 152:	f7ff ffc5 	bl	e0 <i2c_scl_set>
 156:	f7ff ffbb 	bl	d0 <i2c_pause>
 15a:	bd08      	pop	{r3, pc}

0000015c <i2c_stop>:
 15c:	b508      	push	{r3, lr}
 15e:	2000      	movs	r0, #0
 160:	f7ff ffbe 	bl	e0 <i2c_scl_set>
 164:	f7ff ffb4 	bl	d0 <i2c_pause>
 168:	2000      	movs	r0, #0
 16a:	f7ff ffcf 	bl	10c <i2c_sda_set>
 16e:	f7ff ffaf 	bl	d0 <i2c_pause>
 172:	f7ff ffa3 	bl	bc <i2c_scl_set.part.0>
 176:	f7ff ffab 	bl	d0 <i2c_pause>
 17a:	22a0      	movs	r2, #160	; 0xa0
 17c:	2380      	movs	r3, #128	; 0x80
 17e:	05d2      	lsls	r2, r2, #23
 180:	021b      	lsls	r3, r3, #8
 182:	58d1      	ldr	r1, [r2, r3]
 184:	2020      	movs	r0, #32
 186:	4381      	bics	r1, r0
 188:	50d1      	str	r1, [r2, r3]
 18a:	f7ff ffa1 	bl	d0 <i2c_pause>
 18e:	bd08      	pop	{r3, pc}

00000190 <i2c_put_bit>:
 190:	b510      	push	{r4, lr}
 192:	1c04      	adds	r4, r0, #0
 194:	2000      	movs	r0, #0
 196:	f7ff ffa3 	bl	e0 <i2c_scl_set>
 19a:	f7ff ff99 	bl	d0 <i2c_pause>
 19e:	1c20      	adds	r0, r4, #0
 1a0:	f7ff ffb4 	bl	10c <i2c_sda_set>
 1a4:	f7ff ff8a 	bl	bc <i2c_scl_set.part.0>
 1a8:	f7ff ff92 	bl	d0 <i2c_pause>
 1ac:	bd10      	pop	{r4, pc}

000001ae <i2c_get_bit>:
 1ae:	b510      	push	{r4, lr}
 1b0:	2000      	movs	r0, #0
 1b2:	f7ff ff95 	bl	e0 <i2c_scl_set>
 1b6:	f7ff ff8b 	bl	d0 <i2c_pause>
 1ba:	22a0      	movs	r2, #160	; 0xa0
 1bc:	2380      	movs	r3, #128	; 0x80
 1be:	05d2      	lsls	r2, r2, #23
 1c0:	021b      	lsls	r3, r3, #8
 1c2:	58d1      	ldr	r1, [r2, r3]
 1c4:	2020      	movs	r0, #32
 1c6:	4381      	bics	r1, r0
 1c8:	50d1      	str	r1, [r2, r3]
 1ca:	f7ff ff77 	bl	bc <i2c_scl_set.part.0>
 1ce:	f7ff ff7f 	bl	d0 <i2c_pause>
 1d2:	f7ff ffad 	bl	130 <i2c_sda_get>
 1d6:	1c04      	adds	r4, r0, #0
 1d8:	f7ff ff7a 	bl	d0 <i2c_pause>
 1dc:	1c20      	adds	r0, r4, #0
 1de:	bd10      	pop	{r4, pc}

000001e0 <i2c_ack_get>:
 1e0:	b508      	push	{r3, lr}
 1e2:	f7ff ffe4 	bl	1ae <i2c_get_bit>
 1e6:	4243      	negs	r3, r0
 1e8:	4158      	adcs	r0, r3
 1ea:	b2c0      	uxtb	r0, r0
 1ec:	bd08      	pop	{r3, pc}

000001ee <i2c_put_byte>:
 1ee:	b538      	push	{r3, r4, r5, lr}
 1f0:	1c05      	adds	r5, r0, #0
 1f2:	2408      	movs	r4, #8
 1f4:	09e8      	lsrs	r0, r5, #7
 1f6:	3c01      	subs	r4, #1
 1f8:	006d      	lsls	r5, r5, #1
 1fa:	f7ff ffc9 	bl	190 <i2c_put_bit>
 1fe:	b2ed      	uxtb	r5, r5
 200:	2c00      	cmp	r4, #0
 202:	d1f7      	bne.n	1f4 <i2c_put_byte+0x6>
 204:	bd38      	pop	{r3, r4, r5, pc}

00000206 <stepMotor>:
 206:	b508      	push	{r3, lr}
 208:	2803      	cmp	r0, #3
 20a:	d810      	bhi.n	22e <stepMotor+0x28>
 20c:	f000 f8a2 	bl	354 <__gnu_thumb1_case_uqi>
 210:	0b080502 	.word	0x0b080502
 214:	2013      	movs	r0, #19
 216:	210a      	movs	r1, #10
 218:	e007      	b.n	22a <stepMotor+0x24>
 21a:	2013      	movs	r0, #19
 21c:	2106      	movs	r1, #6
 21e:	e004      	b.n	22a <stepMotor+0x24>
 220:	2013      	movs	r0, #19
 222:	2105      	movs	r1, #5
 224:	e001      	b.n	22a <stepMotor+0x24>
 226:	2013      	movs	r0, #19
 228:	2109      	movs	r1, #9
 22a:	f7ff ff27 	bl	7c <MCP23017_writereg>
 22e:	bd08      	pop	{r3, pc}

00000230 <stepperStep>:
 230:	17c1      	asrs	r1, r0, #31
 232:	b538      	push	{r3, r4, r5, lr}
 234:	1844      	adds	r4, r0, r1
 236:	1c05      	adds	r5, r0, #0
 238:	404c      	eors	r4, r1
 23a:	2c00      	cmp	r4, #0
 23c:	d02b      	beq.n	296 <stepperStep+0x66>
 23e:	4b16      	ldr	r3, [pc, #88]	; (298 <stepperStep+0x68>)
 240:	6818      	ldr	r0, [r3, #0]
 242:	f7ff ff0f 	bl	64 <delay>
 246:	4a15      	ldr	r2, [pc, #84]	; (29c <stepperStep+0x6c>)
 248:	4b15      	ldr	r3, [pc, #84]	; (2a0 <stepperStep+0x70>)
 24a:	6811      	ldr	r1, [r2, #0]
 24c:	2d00      	cmp	r5, #0
 24e:	dd0a      	ble.n	266 <stepperStep+0x36>
 250:	3101      	adds	r1, #1
 252:	6011      	str	r1, [r2, #0]
 254:	4913      	ldr	r1, [pc, #76]	; (2a4 <stepperStep+0x74>)
 256:	681a      	ldr	r2, [r3, #0]
 258:	6809      	ldr	r1, [r1, #0]
 25a:	3201      	adds	r2, #1
 25c:	601a      	str	r2, [r3, #0]
 25e:	428a      	cmp	r2, r1
 260:	d10c      	bne.n	27c <stepperStep+0x4c>
 262:	2200      	movs	r2, #0
 264:	e009      	b.n	27a <stepperStep+0x4a>
 266:	3901      	subs	r1, #1
 268:	6011      	str	r1, [r2, #0]
 26a:	681a      	ldr	r2, [r3, #0]
 26c:	2a00      	cmp	r2, #0
 26e:	d102      	bne.n	276 <stepperStep+0x46>
 270:	4a0c      	ldr	r2, [pc, #48]	; (2a4 <stepperStep+0x74>)
 272:	6812      	ldr	r2, [r2, #0]
 274:	601a      	str	r2, [r3, #0]
 276:	681a      	ldr	r2, [r3, #0]
 278:	3a01      	subs	r2, #1
 27a:	601a      	str	r2, [r3, #0]
 27c:	6818      	ldr	r0, [r3, #0]
 27e:	4b0a      	ldr	r3, [pc, #40]	; (2a8 <stepperStep+0x78>)
 280:	3c01      	subs	r4, #1
 282:	4018      	ands	r0, r3
 284:	d504      	bpl.n	290 <stepperStep+0x60>
 286:	2304      	movs	r3, #4
 288:	3801      	subs	r0, #1
 28a:	425b      	negs	r3, r3
 28c:	4318      	orrs	r0, r3
 28e:	3001      	adds	r0, #1
 290:	f7ff ffb9 	bl	206 <stepMotor>
 294:	e7d1      	b.n	23a <stepperStep+0xa>
 296:	bd38      	pop	{r3, r4, r5, pc}
 298:	10000000 	.word	0x10000000
 29c:	10000004 	.word	0x10000004
 2a0:	1000000c 	.word	0x1000000c
 2a4:	10000008 	.word	0x10000008
 2a8:	80000003 	.word	0x80000003

000002ac <stepperInit>:
 2ac:	b510      	push	{r4, lr}
 2ae:	1c04      	adds	r4, r0, #0
 2b0:	2000      	movs	r0, #0
 2b2:	1c01      	adds	r1, r0, #0
 2b4:	f7ff fee2 	bl	7c <MCP23017_writereg>
 2b8:	2100      	movs	r1, #0
 2ba:	2001      	movs	r0, #1
 2bc:	f7ff fede 	bl	7c <MCP23017_writereg>
 2c0:	2100      	movs	r1, #0
 2c2:	2012      	movs	r0, #18
 2c4:	f7ff feda 	bl	7c <MCP23017_writereg>
 2c8:	2100      	movs	r1, #0
 2ca:	2013      	movs	r0, #19
 2cc:	f7ff fed6 	bl	7c <MCP23017_writereg>
 2d0:	4b02      	ldr	r3, [pc, #8]	; (2dc <stepperInit+0x30>)
 2d2:	4a03      	ldr	r2, [pc, #12]	; (2e0 <stepperInit+0x34>)
 2d4:	601c      	str	r4, [r3, #0]
 2d6:	4b03      	ldr	r3, [pc, #12]	; (2e4 <stepperInit+0x38>)
 2d8:	601a      	str	r2, [r3, #0]
 2da:	bd10      	pop	{r4, pc}
 2dc:	10000008 	.word	0x10000008
 2e0:	00002ee0 	.word	0x00002ee0
 2e4:	10000000 	.word	0x10000000

000002e8 <main>:
 2e8:	b508      	push	{r3, lr}
 2ea:	f7ff fe99 	bl	20 <timer_init>
 2ee:	2040      	movs	r0, #64	; 0x40
 2f0:	f7ff ffdc 	bl	2ac <stepperInit>
 2f4:	2080      	movs	r0, #128	; 0x80
 2f6:	0100      	lsls	r0, r0, #4
 2f8:	f7ff ff9a 	bl	230 <stepperStep>
 2fc:	e7fa      	b.n	2f4 <main+0xc>
	...

00000300 <__startup>:
 300:	b510      	push	{r4, lr}
 302:	4b0f      	ldr	r3, [pc, #60]	; (340 <__startup+0x40>)
 304:	4a0f      	ldr	r2, [pc, #60]	; (344 <__startup+0x44>)
 306:	1d19      	adds	r1, r3, #4
 308:	3b04      	subs	r3, #4
 30a:	4293      	cmp	r3, r2
 30c:	d003      	beq.n	316 <__startup+0x16>
 30e:	2200      	movs	r2, #0
 310:	601a      	str	r2, [r3, #0]
 312:	1c0b      	adds	r3, r1, #0
 314:	e7f6      	b.n	304 <__startup+0x4>
 316:	4a0c      	ldr	r2, [pc, #48]	; (348 <__startup+0x48>)
 318:	490c      	ldr	r1, [pc, #48]	; (34c <__startup+0x4c>)
 31a:	2300      	movs	r3, #0
 31c:	1a89      	subs	r1, r1, r2
 31e:	0889      	lsrs	r1, r1, #2
 320:	3101      	adds	r1, #1
 322:	0089      	lsls	r1, r1, #2
 324:	3304      	adds	r3, #4
 326:	428b      	cmp	r3, r1
 328:	d007      	beq.n	33a <__startup+0x3a>
 32a:	4c09      	ldr	r4, [pc, #36]	; (350 <__startup+0x50>)
 32c:	18d0      	adds	r0, r2, r3
 32e:	191c      	adds	r4, r3, r4
 330:	3c04      	subs	r4, #4
 332:	6824      	ldr	r4, [r4, #0]
 334:	3804      	subs	r0, #4
 336:	6004      	str	r4, [r0, #0]
 338:	e7f4      	b.n	324 <__startup+0x24>
 33a:	f7ff ffd5 	bl	2e8 <main>
 33e:	e7fe      	b.n	33e <__startup+0x3e>
 340:	10000008 	.word	0x10000008
 344:	10000010 	.word	0x10000010
 348:	10000000 	.word	0x10000000
 34c:	10000004 	.word	0x10000004
 350:	00000368 	.word	0x00000368

00000354 <__gnu_thumb1_case_uqi>:
 354:	b402      	push	{r1}
 356:	4671      	mov	r1, lr
 358:	0849      	lsrs	r1, r1, #1
 35a:	0049      	lsls	r1, r1, #1
 35c:	5c09      	ldrb	r1, [r1, r0]
 35e:	0049      	lsls	r1, r1, #1
 360:	448e      	add	lr, r1
 362:	bc02      	pop	{r1}
 364:	4770      	bx	lr
 366:	46c0      	nop			; (mov r8, r8)
